(lp0
(lp1
a(lp2
a(lp3
a(lp4
a(lp5
a(lp6
a(lp7
a(lp8
a(lp9
a(lp10
a(lp11
a(lp12
a(lp13
a(lp14
a(lp15
a(lp16
a(lp17
a(lp18
a(lp19
a(lp20
a(lp21
a(lp22
a(lp23
a(lp24
a(lp25
a(lp26
a(lp27
a(lp28
a(lp29
(iBoxes
Box
p30
(dp31
S'box'
p32
(lp33
I250
aI0
aI51
aI27
asbaa(lp34
(iBoxes
Box
p35
(dp36
g32
(lp37
I250
aI2
aI50
aI23
asbaa(lp38
(iBoxes
Box
p39
(dp40
g32
(lp41
I249
aI1
aI52
aI28
asbaa(lp42
(iBoxes
Box
p43
(dp44
g32
(lp45
I264
aI20
aI42
aI17
asbaa(lp46
a(lp47
a(lp48
(iBoxes
Box
p49
(dp50
g32
(lp51
I281
aI36
aI43
aI14
asbaa(lp52
(iBoxes
Box
p53
(dp54
g32
(lp55
I296
aI44
aI45
aI23
asbaa(lp56
(iBoxes
Box
p57
(dp58
g32
(lp59
I299
aI51
aI52
aI25
asbaa(lp60
(iBoxes
Box
p61
(dp62
g32
(lp63
I291
aI22
aI82
aI55
asbaa(lp64
(iBoxes
Box
p65
(dp66
g32
(lp67
I299
aI45
aI86
aI50
asbaa(lp68
(iBoxes
Box
p69
(dp70
g32
(lp71
I293
aI44
aI91
aI48
asbaa(lp72
(iBoxes
Box
p73
(dp74
g32
(lp75
I310
aI68
aI99
aI43
asbaa(lp76
a(lp77
a(lp78
a(lp79
a(lp80
a(lp81
a(lp82
a(lp83
a(lp84
(iBoxes
Box
p85
(dp86
g32
(lp87
I255
aI14
aI45
aI25
asbaa(lp88
a(lp89
a(lp90
(iBoxes
Box
p91
(dp92
g32
(lp93
I201
aI1
aI50
aI24
asbaa(lp94
(iBoxes
Box
p95
(dp96
g32
(lp97
I290
aI66
aI31
aI23
asba(iBoxes
Box
p98
(dp99
g32
(lp100
I200
aI1
aI51
aI25
asbaa(lp101
(iBoxes
Box
p102
(dp103
g32
(lp104
I200
aI2
aI52
aI49
asba(iBoxes
Box
p105
(dp106
g32
(lp107
I294
aI84
aI40
aI28
asbaa(lp108
(iBoxes
Box
p109
(dp110
g32
(lp111
I301
aI101
aI51
aI50
asba(iBoxes
Box
p112
(dp113
g32
(lp114
I200
aI1
aI52
aI50
asbaa(lp115
(iBoxes
Box
p116
(dp117
g32
(lp118
I201
aI25
aI75
aI51
asba(iBoxes
Box
p119
(dp120
g32
(lp121
I325
aI140
aI52
aI33
asbaa(lp122
(iBoxes
Box
p123
(dp124
g32
(lp125
I201
aI26
aI75
aI50
asba(iBoxes
Box
p126
(dp127
g32
(lp128
I325
aI151
aI51
aI26
asbaa(lp129
(iBoxes
Box
p130
(dp131
g32
(lp132
I200
aI25
aI75
aI76
asbaa(lp133
(iBoxes
Box
p134
(dp135
g32
(lp136
I200
aI49
aI76
aI76
asbaa(lp137
(iBoxes
Box
p138
(dp139
g32
(lp140
I199
aI49
aI102
aI102
asbaa(lp141
(iBoxes
Box
p142
(dp143
g32
(lp144
I211
aI76
aI93
aI96
asba(iBoxes
Box
p145
(dp146
g32
(lp147
I75
aI2
aI51
aI24
asbaa(lp148
(iBoxes
Box
p149
(dp150
g32
(lp151
I215
aI99
aI95
aI100
asba(iBoxes
Box
p152
(dp153
g32
(lp154
I73
aI1
aI79
aI25
asbaa(lp155
(iBoxes
Box
p156
(dp157
g32
(lp158
I219
aI102
aI94
aI97
asba(iBoxes
Box
p159
(dp160
g32
(lp161
I76
aI1
aI74
aI25
asbaa(lp162
(iBoxes
Box
p163
(dp164
g32
(lp165
I219
aI123
aI105
aI65
asba(iBoxes
Box
p166
(dp167
g32
(lp168
I75
aI1
aI76
aI24
asbaa(lp169
(iBoxes
Box
p170
(dp171
g32
(lp172
I225
aI152
aI108
aI47
asba(iBoxes
Box
p173
(dp174
g32
(lp175
I65
aI14
aI65
aI25
asbaa(lp176
(iBoxes
Box
p177
(dp178
g32
(lp179
I144
aI84
aI34
aI22
asba(iBoxes
Box
p180
(dp181
g32
(lp182
I51
aI1
aI76
aI76
asbaa(lp183
(iBoxes
Box
p184
(dp185
g32
(lp186
I50
aI1
aI76
aI75
asbaa(lp187
(iBoxes
Box
p188
(dp189
g32
(lp190
I49
aI26
aI77
aI75
asba(iBoxes
Box
p191
(dp192
g32
(lp193
I126
aI102
aI49
aI49
asbaa(lp194
(iBoxes
Box
p195
(dp196
g32
(lp197
I51
aI26
aI75
aI75
asbaa(lp198
(iBoxes
Box
p199
(dp200
g32
(lp201
I26
aI25
aI100
aI76
asbaa(lp202
(iBoxes
Box
p203
(dp204
g32
(lp205
I23
aI24
aI104
aI79
asbaa(lp206
(iBoxes
Box
p207
(dp208
g32
(lp209
I10
aI79
aI94
aI48
asbaa(lp210
(iBoxes
Box
p211
(dp212
g32
(lp213
I0
aI101
aI91
aI57
asba(iBoxes
Box
p214
(dp215
g32
(lp216
I201
aI77
aI51
aI24
asbaa(lp217
(iBoxes
Box
p218
(dp219
g32
(lp220
I0
aI130
aI81
aI53
asbaa(lp221
(iBoxes
Box
p222
(dp223
g32
(lp224
I0
aI130
aI82
aI55
asbaa(lp225
(iBoxes
Box
p226
(dp227
g32
(lp228
I19
aI161
aI51
aI36
asba(iBoxes
Box
p229
(dp230
g32
(lp231
I34
aI100
aI55
aI38
asbaa(lp232
(iBoxes
Box
p233
(dp234
g32
(lp235
I201
aI1
aI50
aI25
asbaa(lp236
(iBoxes
Box
p237
(dp238
g32
(lp239
I199
aI1
aI52
aI24
asbaa(lp240
(iBoxes
Box
p241
(dp242
g32
(lp243
I201
aI2
aI75
aI49
asbaa(lp244
(iBoxes
Box
p245
(dp246
g32
(lp247
I201
aI24
aI75
aI26
asbaa(lp248
(iBoxes
Box
p249
(dp250
g32
(lp251
I201
aI25
aI76
aI24
asbaa(lp252
(iBoxes
Box
p253
(dp254
g32
(lp255
I218
aI30
aI56
aI42
asbaa(lp256
(iBoxes
Box
p257
(dp258
g32
(lp259
I223
aI33
aI57
aI47
asbaa(lp260
(iBoxes
Box
p261
(dp262
g32
(lp263
I225
aI49
aI76
aI52
asbaa(lp264
(iBoxes
Box
p265
(dp266
g32
(lp267
I226
aI51
aI76
aI73
asbaa(lp268
(iBoxes
Box
p269
(dp270
g32
(lp271
I224
aI74
aI96
aI68
asbaa(lp272
(iBoxes
Box
p273
(dp274
g32
(lp275
I226
aI76
aI94
aI66
asbaa(lp276
(iBoxes
Box
p277
(dp278
g32
(lp279
I248
aI102
aI79
aI64
asbaa(lp280
(iBoxes
Box
p281
(dp282
g32
(lp283
I261
aI126
aI85
aI73
asbaa(lp284
(iBoxes
Box
p285
(dp286
g32
(lp287
I270
aI155
aI87
aI44
asbaa(lp288
(iBoxes
Box
p289
(dp290
g32
(lp291
I151
aI2
aI40
aI43
asbaa(lp292
(iBoxes
Box
p293
(dp294
g32
(lp295
I146
aI16
aI45
aI34
asbaa(lp296
(iBoxes
Box
p297
(dp298
g32
(lp299
I152
aI16
aI36
aI29
asbaa(lp300
a(lp301
a(lp302
(iBoxes
Box
p303
(dp304
g32
(lp305
I59
aI0
aI70
aI13
asbaa(lp306
(iBoxes
Box
p307
(dp308
g32
(lp309
I51
aI0
aI74
aI26
asba(iBoxes
Box
p310
(dp311
g32
(lp312
I150
aI73
aI51
aI27
asbaa(lp313
(iBoxes
Box
p314
(dp315
g32
(lp316
I39
aI10
aI89
aI27
asba(iBoxes
Box
p317
(dp318
g32
(lp319
I151
aI100
aI50
aI25
asbaa(lp320
(iBoxes
Box
p321
(dp322
g32
(lp323
I44
aI11
aI83
aI24
asba(iBoxes
Box
p324
(dp325
g32
(lp326
I152
aI100
aI48
aI24
asbaa(lp327
(iBoxes
Box
p328
(dp329
g32
(lp330
I24
aI6
aI102
aI44
asbaa(lp331
(iBoxes
Box
p332
(dp333
g32
(lp334
I174
aI0
aI51
aI26
asba(iBoxes
Box
p335
(dp336
g32
(lp337
I23
aI32
aI102
aI37
asbaa(lp338
(iBoxes
Box
p339
(dp340
g32
(lp341
I13
aI50
aI103
aI22
asba(iBoxes
Box
p342
(dp343
g32
(lp344
I175
aI1
aI51
aI25
asbaa(lp345
(iBoxes
Box
p346
(dp347
g32
(lp348
I4
aI64
aI108
aI28
asba(iBoxes
Box
p349
(dp350
g32
(lp351
I175
aI2
aI51
aI41
asbaa(lp352
(iBoxes
Box
p353
(dp354
g32
(lp355
I0
aI79
aI101
aI39
asba(iBoxes
Box
p356
(dp357
g32
(lp358
I173
aI6
aI52
aI49
asbaa(lp359
(iBoxes
Box
p360
(dp361
g32
(lp362
I0
aI79
aI104
aI42
asba(iBoxes
Box
p363
(dp364
g32
(lp365
I175
aI7
aI51
aI46
asbaa(lp366
(iBoxes
Box
p367
(dp368
g32
(lp369
I0
aI96
aI95
aI42
asba(iBoxes
Box
p370
(dp371
g32
(lp372
I176
aI26
aI50
aI50
asbaa(lp373
(iBoxes
Box
p374
(dp375
g32
(lp376
I0
aI116
aI84
aI55
asba(iBoxes
Box
p377
(dp378
g32
(lp379
I151
aI25
aI75
aI56
asbaa(lp380
(iBoxes
Box
p381
(dp382
g32
(lp383
I0
aI148
aI77
aI51
asba(iBoxes
Box
p384
(dp385
g32
(lp386
I149
aI31
aI102
aI67
asba(iBoxes
Box
p387
(dp388
g32
(lp389
I49
aI0
aI51
aI17
asbaa(lp390
(iBoxes
Box
p391
(dp392
g32
(lp393
I54
aI2
aI27
aI17
asba(iBoxes
Box
p394
(dp395
g32
(lp396
I167
aI60
aI66
aI46
asbaa(lp397
(iBoxes
Box
p398
(dp399
g32
(lp400
I178
aI50
aI73
aI126
asbaa(lp401
(iBoxes
Box
p402
(dp403
g32
(lp404
I177
aI52
aI73
aI125
asbaa(lp405
(iBoxes
Box
p406
(dp407
g32
(lp408
I175
aI75
aI77
aI123
asba(iBoxes
Box
p409
(dp410
g32
(lp411
I51
aI8
aI33
aI40
asbaa(lp412
(iBoxes
Box
p413
(dp414
g32
(lp415
I163
aI128
aI83
aI52
asba(iBoxes
Box
p416
(dp417
g32
(lp418
I25
aI26
aI51
aI24
asbaa(lp419
(iBoxes
Box
p420
(dp421
g32
(lp422
I165
aI156
aI87
aI43
asbaa(lp423
(iBoxes
Box
p424
(dp425
g32
(lp426
I199
aI151
aI77
aI47
asbaa(lp427
a(lp428
a(lp429
a(lp430
a(lp431
a(lp432
a(lp433
a(lp434
a(lp435
a(lp436
a(lp437
a(lp438
a(lp439
(iBoxes
Box
p440
(dp441
g32
(lp442
I149
aI1
aI27
aI41
asbaa(lp443
(iBoxes
Box
p444
(dp445
g32
(lp446
I149
aI1
aI28
aI46
asbaa(lp447
(iBoxes
Box
p448
(dp449
g32
(lp450
I150
aI1
aI27
aI49
asbaa(lp451
(iBoxes
Box
p452
(dp453
g32
(lp454
I150
aI4
aI26
aI49
asbaa(lp455
(iBoxes
Box
p456
(dp457
g32
(lp458
I150
aI2
aI28
aI74
asbaa(lp459
(iBoxes
Box
p460
(dp461
g32
(lp462
I150
aI1
aI52
aI74
asbaa(lp463
(iBoxes
Box
p464
(dp465
g32
(lp466
I151
aI0
aI51
aI101
asbaa(lp467
(iBoxes
Box
p468
(dp469
g32
(lp470
I150
aI2
aI53
aI98
asbaa(lp471
(iBoxes
Box
p472
(dp473
g32
(lp474
I151
aI1
aI50
aI76
asba(iBoxes
Box
p475
(dp476
g32
(lp477
I124
aI99
aI53
aI27
asbaa(lp478
(iBoxes
Box
p479
(dp480
g32
(lp481
I125
aI2
aI77
aI149
asbaa(lp482
(iBoxes
Box
p483
(dp484
g32
(lp485
I148
aI25
aI53
aI52
asbaa(lp486
(iBoxes
Box
p487
(dp488
g32
(lp489
I149
aI23
aI51
aI79
asbaa(lp490
(iBoxes
Box
p491
(dp492
g32
(lp493
I145
aI61
aI56
aI65
asbaa(lp494
(iBoxes
Box
p495
(dp496
g32
(lp497
I154
aI67
aI35
aI55
asbaa(lp498
(iBoxes
Box
p499
(dp500
g32
(lp501
I144
aI80
aI56
aI72
asbaa(lp502
(iBoxes
Box
p503
(dp504
g32
(lp505
I240
aI3
aI35
aI12
asba(iBoxes
Box
p506
(dp507
g32
(lp508
I150
aI75
aI51
aI101
asbaa(lp509
(iBoxes
Box
p510
(dp511
g32
(lp512
I150
aI100
aI51
aI99
asba(iBoxes
Box
p513
(dp514
g32
(lp515
I250
aI1
aI76
aI25
asbaa(lp516
(iBoxes
Box
p517
(dp518
g32
(lp519
I149
aI125
aI52
aI73
asba(iBoxes
Box
p520
(dp521
g32
(lp522
I251
aI1
aI76
aI25
asbaa(lp523
(iBoxes
Box
p524
(dp525
g32
(lp526
I250
aI2
aI76
aI49
asba(iBoxes
Box
p527
(dp528
g32
(lp529
I150
aI152
aI26
aI47
asbaa(lp530
(iBoxes
Box
p531
(dp532
g32
(lp533
I251
aI0
aI99
aI50
asbaa(lp534
(iBoxes
Box
p535
(dp536
g32
(lp537
I249
aI1
aI102
aI51
asbaa(lp538
(iBoxes
Box
p539
(dp540
g32
(lp541
I274
aI2
aI76
aI74
asbaa(lp542
(iBoxes
Box
p543
(dp544
g32
(lp545
I276
aI14
aI82
aI80
asbaa(lp546
(iBoxes
Box
p547
(dp548
g32
(lp549
I300
aI42
aI76
aI59
asbaa(lp550
(iBoxes
Box
p551
(dp552
g32
(lp553
I298
aI70
aI103
aI59
asbaa(lp554
(iBoxes
Box
p555
(dp556
g32
(lp557
I324
aI71
aI82
aI97
asbaa(lp558
(iBoxes
Box
p559
(dp560
g32
(lp561
I322
aI72
aI86
aI93
asbaa(lp562
(iBoxes
Box
p563
(dp564
g32
(lp565
I349
aI148
aI51
aI51
asba(iBoxes
Box
p566
(dp567
g32
(lp568
I325
aI78
aI99
aI49
asbaa(lp569
(iBoxes
Box
p570
(dp571
g32
(lp572
I374
aI124
aI80
aI37
asbaa(lp573
a(lp574
a(lp575
a(lp576
a(lp577
a(lp578
a(lp579
a(lp580
a(lp581
a(lp582
a(lp583
a(lp584
a(lp585
a(lp586
a(lp587
a(lp588
a(lp589
a(lp590
a(lp591
a(lp592
a(lp593
a(lp594
a(lp595
a(lp596
a(lp597
a(lp598
a(lp599
(iBoxes
Box
p600
(dp601
g32
(lp602
I175
aI0
aI52
aI26
asbaa(lp603
(iBoxes
Box
p604
(dp605
g32
(lp606
I174
aI1
aI53
aI25
asbaa(lp607
(iBoxes
Box
p608
(dp609
g32
(lp610
I175
aI0
aI51
aI26
asbaa(lp611
(iBoxes
Box
p612
(dp613
g32
(lp614
I181
aI2
aI55
aI43
asbaa(lp615
(iBoxes
Box
p616
(dp617
g32
(lp618
I191
aI21
aI42
aI34
asbaa(lp619
(iBoxes
Box
p620
(dp621
g32
(lp622
I190
aI25
aI52
aI45
asbaa(lp623
(iBoxes
Box
p624
(dp625
g32
(lp626
I191
aI40
aI52
aI42
asbaa(lp627
(iBoxes
Box
p628
(dp629
g32
(lp630
I192
aI43
aI48
aI37
asbaa(lp631
(iBoxes
Box
p632
(dp633
g32
(lp634
I194
aI58
aI51
aI42
asba(iBoxes
Box
p635
(dp636
g32
(lp637
I174
aI1
aI46
aI25
asbaa(lp638
(iBoxes
Box
p639
(dp640
g32
(lp641
I197
aI74
aI51
aI43
asba(iBoxes
Box
p642
(dp643
g32
(lp644
I175
aI0
aI50
aI26
asbaa(lp645
(iBoxes
Box
p646
(dp647
g32
(lp648
I198
aI90
aI57
aI50
asba(iBoxes
Box
p649
(dp650
g32
(lp651
I175
aI1
aI52
aI50
asbaa(lp652
(iBoxes
Box
p653
(dp654
g32
(lp655
I199
aI112
aI67
aI62
asba(iBoxes
Box
p656
(dp657
g32
(lp658
I175
aI26
aI51
aI25
asbaa(lp659
(iBoxes
Box
p660
(dp661
g32
(lp662
I176
aI26
aI51
aI25
asba(iBoxes
Box
p663
(dp664
g32
(lp665
I201
aI124
aI75
aI74
asbaa(lp666
(iBoxes
Box
p667
(dp668
g32
(lp669
I204
aI139
aI69
aI60
asba(iBoxes
Box
p670
(dp671
g32
(lp672
I177
aI26
aI49
aI26
asbaa(lp673
(iBoxes
Box
p674
(dp675
g32
(lp676
I209
aI165
aI64
aI34
asba(iBoxes
Box
p677
(dp678
g32
(lp679
I174
aI49
aI53
aI27
asbaa(lp680
(iBoxes
Box
p681
(dp682
g32
(lp683
I195
aI61
aI35
aI25
asbaa(lp684
(iBoxes
Box
p685
(dp686
g32
(lp687
I198
aI79
aI28
aI20
asbaa(lp688
(iBoxes
Box
p689
(dp690
g32
(lp691
I197
aI98
aI38
aI29
asbaa(lp692
(iBoxes
Box
p693
(dp694
g32
(lp695
I201
aI106
aI44
aI41
asba(iBoxes
Box
p696
(dp697
g32
(lp698
I179
aI34
aI32
aI23
asbaa(lp699
(iBoxes
Box
p700
(dp701
g32
(lp702
I201
aI106
aI42
aI40
asba(iBoxes
Box
p703
(dp704
g32
(lp705
I187
aI40
aI20
aI18
asbaa(lp706
(iBoxes
Box
p707
(dp708
g32
(lp709
I201
aI130
aI47
aI40
asba(iBoxes
Box
p710
(dp711
g32
(lp712
I187
aI47
aI22
aI23
asbaa(lp713
(iBoxes
Box
p714
(dp715
g32
(lp716
I200
aI149
aI51
aI50
asba(iBoxes
Box
p717
(dp718
g32
(lp719
I192
aI58
aI21
aI26
asbaa(lp720
(iBoxes
Box
p721
(dp722
g32
(lp723
I195
aI76
aI23
aI21
asbaa(lp724
(iBoxes
Box
p725
(dp726
g32
(lp727
I194
aI85
aI28
aI33
asbaa(lp728
(iBoxes
Box
p729
(dp730
g32
(lp731
I198
aI106
aI28
aI27
asbaa(lp732
(iBoxes
Box
p733
(dp734
g32
(lp735
I192
aI107
aI36
aI26
asbaa(lp736
(iBoxes
Box
p737
(dp738
g32
(lp739
I204
aI132
aI23
aI20
asbaa(lp740
(iBoxes
Box
p741
(dp742
g32
(lp743
I204
aI155
aI27
aI27
asbaa(lp744
a(lp745
a(lp746
a(lp747
a(lp748
a(lp749
a(lp750
a(lp751
a(lp752
a(lp753
a(lp754
a(lp755
(iBoxes
Box
p756
(dp757
g32
(lp758
I200
aI1
aI51
aI23
asbaa(lp759
(iBoxes
Box
p760
(dp761
g32
(lp762
I200
aI1
aI51
aI20
asbaa(lp763
(iBoxes
Box
p764
(dp765
g32
(lp766
I200
aI1
aI51
aI24
asba(iBoxes
Box
p767
(dp768
g32
(lp769
I297
aI6
aI54
aI46
asbaa(lp770
(iBoxes
Box
p771
(dp772
g32
(lp773
I200
aI0
aI69
aI37
asba(iBoxes
Box
p774
(dp775
g32
(lp776
I302
aI26
aI82
aI40
asbaa(lp777
(iBoxes
Box
p778
(dp779
g32
(lp780
I200
aI1
aI67
aI34
asbaa(lp781
(iBoxes
Box
p782
(dp783
g32
(lp784
I202
aI9
aI65
aI33
asbaa(lp785
(iBoxes
Box
p786
(dp787
g32
(lp788
I200
aI25
aI76
aI28
asbaa(lp789
(iBoxes
Box
p790
(dp791
g32
(lp792
I202
aI26
aI74
aI42
asbaa(lp793
(iBoxes
Box
p794
(dp795
g32
(lp796
I208
aI31
aI69
aI46
asbaa(lp797
(iBoxes
Box
p798
(dp799
g32
(lp800
I222
aI46
aI58
aI39
asbaa(lp801
(iBoxes
Box
p802
(dp803
g32
(lp804
I215
aI42
aI69
aI47
asbaa(lp805
(iBoxes
Box
p806
(dp807
g32
(lp808
I218
aI52
aI70
aI50
asbaa(lp809
(iBoxes
Box
p810
(dp811
g32
(lp812
I220
aI70
aI74
aI44
asbaa(lp813
(iBoxes
Box
p814
(dp815
g32
(lp816
I223
aI82
aI80
aI48
asbaa(lp817
(iBoxes
Box
p818
(dp819
g32
(lp820
I224
aI96
aI80
aI58
asbaa(lp821
(iBoxes
Box
p822
(dp823
g32
(lp824
I232
aI109
aI82
aI59
asbaa(lp825
(iBoxes
Box
p826
(dp827
g32
(lp828
I231
aI111
aI83
aI53
asbaa(lp829
(iBoxes
Box
p830
(dp831
g32
(lp832
I243
aI129
aI74
aI58
asbaa(lp833
(iBoxes
Box
p834
(dp835
g32
(lp836
I250
aI146
aI77
aI53
asbaa(lp837
(iBoxes
Box
p838
(dp839
g32
(lp840
I260
aI162
aI75
aI37
asbaa(lp841
(iBoxes
Box
p842
(dp843
g32
(lp844
I300
aI178
aI50
aI21
asbaa(lp845
a(lp846
a(lp847
a(lp848
a(lp849
a(lp850
a(lp851
a(lp852
a(lp853
a(lp854
a(lp855
a(lp856
a(lp857
a(lp858
a(lp859
a(lp860
a(lp861
a(lp862
a(lp863
a(lp864
a(lp865
a(lp866
a(lp867
a(lp868
a(lp869
a(lp870
a(lp871
a(lp872
a(lp873
a(lp874
a(lp875
a(lp876
a(lp877
a(lp878
a(lp879
a(lp880
a(lp881
a(lp882
a(lp883
a(lp884
a(lp885
a(lp886
a(lp887
a(lp888
a(lp889
a(lp890
a(lp891
a(lp892
a(lp893
a(lp894
a(lp895
a(lp896
a(lp897
(iBoxes
Box
p898
(dp899
g32
(lp900
I175
aI0
aI77
aI26
asbaa(lp901
(iBoxes
Box
p902
(dp903
g32
(lp904
I174
aI2
aI73
aI29
asbaa(lp905
(iBoxes
Box
p906
(dp907
g32
(lp908
I175
aI1
aI71
aI29
asbaa(lp909
(iBoxes
Box
p910
(dp911
g32
(lp912
I174
aI1
aI75
aI31
asbaa(lp913
(iBoxes
Box
p914
(dp915
g32
(lp916
I171
aI3
aI83
aI29
asbaa(lp917
(iBoxes
Box
p918
(dp919
g32
(lp920
I165
aI2
aI89
aI37
asbaa(lp921
(iBoxes
Box
p922
(dp923
g32
(lp924
I170
aI10
aI82
aI32
asbaa(lp925
(iBoxes
Box
p926
(dp927
g32
(lp928
I175
aI17
aI75
aI27
asbaa(lp929
(iBoxes
Box
p930
(dp931
g32
(lp932
I175
aI17
aI84
aI30
asbaa(lp933
(iBoxes
Box
p934
(dp935
g32
(lp936
I172
aI15
aI89
aI35
asbaa(lp937
(iBoxes
Box
p938
(dp939
g32
(lp940
I175
aI17
aI87
aI33
asbaa(lp941
(iBoxes
Box
p942
(dp943
g32
(lp944
I176
aI22
aI81
aI27
asbaa(lp945
(iBoxes
Box
p946
(dp947
g32
(lp948
I174
aI26
aI76
aI24
asbaa(lp949
(iBoxes
Box
p950
(dp951
g32
(lp952
I173
aI24
aI89
aI31
asbaa(lp953
(iBoxes
Box
p954
(dp955
g32
(lp956
I176
aI24
aI75
aI27
asbaa(lp957
(iBoxes
Box
p958
(dp959
g32
(lp960
I175
aI25
aI75
aI25
asbaa(lp961
(iBoxes
Box
p962
(dp963
g32
(lp964
I174
aI26
aI84
aI39
asbaa(lp965
(iBoxes
Box
p966
(dp967
g32
(lp968
I175
aI26
aI86
aI46
asbaa(lp969
(iBoxes
Box
p970
(dp971
g32
(lp972
I169
aI26
aI95
aI42
asbaa(lp973
(iBoxes
Box
p974
(dp975
g32
(lp976
I171
aI29
aI85
aI43
asbaa(lp977
(iBoxes
Box
p978
(dp979
g32
(lp980
I168
aI40
aI88
aI32
asbaa(lp981
(iBoxes
Box
p982
(dp983
g32
(lp984
I167
aI40
aI90
aI36
asbaa(lp985
(iBoxes
Box
p986
(dp987
g32
(lp988
I163
aI38
aI95
aI38
asbaa(lp989
(iBoxes
Box
p990
(dp991
g32
(lp992
I171
aI38
aI106
aI35
asbaa(lp993
(iBoxes
Box
p994
(dp995
g32
(lp996
I153
aI30
aI122
aI49
asbaa(lp997
(iBoxes
Box
p998
(dp999
g32
(lp1000
I170
aI44
aI108
aI37
asbaa(lp1001
(iBoxes
Box
p1002
(dp1003
g32
(lp1004
I172
aI45
aI96
aI36
asbaa(lp1005
(iBoxes
Box
p1006
(dp1007
g32
(lp1008
I177
aI52
aI93
aI28
asbaa(lp1009
(iBoxes
Box
p1010
(dp1011
g32
(lp1012
I176
aI53
aI89
aI27
asbaa(lp1013
(iBoxes
Box
p1014
(dp1015
g32
(lp1016
I174
aI57
aI93
aI29
asbaa(lp1017
(iBoxes
Box
p1018
(dp1019
g32
(lp1020
I176
aI56
aI94
aI30
asbaa(lp1021
(iBoxes
Box
p1022
(dp1023
g32
(lp1024
I181
aI58
aI85
aI33
asbaa(lp1025
(iBoxes
Box
p1026
(dp1027
g32
(lp1028
I175
aI61
aI88
aI29
asbaa(lp1029
(iBoxes
Box
p1030
(dp1031
g32
(lp1032
I170
aI63
aI95
aI24
asbaa(lp1033
(iBoxes
Box
p1034
(dp1035
g32
(lp1036
I174
aI63
aI99
aI32
asbaa(lp1037
(iBoxes
Box
p1038
(dp1039
g32
(lp1040
I177
aI65
aI98
aI33
asbaa(lp1041
(iBoxes
Box
p1042
(dp1043
g32
(lp1044
I176
aI64
aI94
aI34
asbaa(lp1045
(iBoxes
Box
p1046
(dp1047
g32
(lp1048
I174
aI70
aI102
aI33
asbaa(lp1049
(iBoxes
Box
p1050
(dp1051
g32
(lp1052
I173
aI73
aI97
aI36
asbaa(lp1053
(iBoxes
Box
p1054
(dp1055
g32
(lp1056
I172
aI71
aI99
aI36
asbaa(lp1057
(iBoxes
Box
p1058
(dp1059
g32
(lp1060
I168
aI69
aI111
aI48
asbaa(lp1061
(iBoxes
Box
p1062
(dp1063
g32
(lp1064
I182
aI79
aI95
aI35
asbaa(lp1065
(iBoxes
Box
p1066
(dp1067
g32
(lp1068
I177
aI80
aI103
aI42
asbaa(lp1069
(iBoxes
Box
p1070
(dp1071
g32
(lp1072
I175
aI84
aI100
aI40
asbaa(lp1073
(iBoxes
Box
p1074
(dp1075
g32
(lp1076
I177
aI88
aI105
aI38
asbaa(lp1077
(iBoxes
Box
p1078
(dp1079
g32
(lp1080
I179
aI87
aI100
aI36
asbaa(lp1081
(iBoxes
Box
p1082
(dp1083
g32
(lp1084
I175
aI89
aI110
aI36
asbaa(lp1085
(iBoxes
Box
p1086
(dp1087
g32
(lp1088
I179
aI93
aI99
aI41
asbaa(lp1089
(iBoxes
Box
p1090
(dp1091
g32
(lp1092
I182
aI92
aI103
aI45
asbaa(lp1093
(iBoxes
Box
p1094
(dp1095
g32
(lp1096
I185
aI98
aI104
aI44
asbaa(lp1097
(iBoxes
Box
p1098
(dp1099
g32
(lp1100
I175
aI106
aI114
aI42
asbaa(lp1101
(iBoxes
Box
p1102
(dp1103
g32
(lp1104
I173
aI107
aI120
aI46
asbaa(lp1105
(iBoxes
Box
p1106
(dp1107
g32
(lp1108
I180
aI107
aI111
aI48
asbaa(lp1109
(iBoxes
Box
p1110
(dp1111
g32
(lp1112
I175
aI114
aI114
aI39
asbaa(lp1113
(iBoxes
Box
p1114
(dp1115
g32
(lp1116
I173
aI121
aI119
aI41
asbaa(lp1117
(iBoxes
Box
p1118
(dp1119
g32
(lp1120
I176
aI123
aI118
aI47
asbaa(lp1121
(iBoxes
Box
p1122
(dp1123
g32
(lp1124
I178
aI128
aI129
aI57
asbaa(lp1125
(iBoxes
Box
p1126
(dp1127
g32
(lp1128
I168
aI126
aI131
aI66
asbaa(lp1129
(iBoxes
Box
p1130
(dp1131
g32
(lp1132
I177
aI135
aI112
aI47
asbaa(lp1133
(iBoxes
Box
p1134
(dp1135
g32
(lp1136
I179
aI136
aI128
aI53
asbaa(lp1137
a(lp1138
a(lp1139
a(lp1140
a(lp1141
a(lp1142
a(lp1143
a(lp1144
a(lp1145
a(lp1146
(iBoxes
Box
p1147
(dp1148
g32
(lp1149
I205
aI0
aI39
aI16
asbaa(lp1150
(iBoxes
Box
p1151
(dp1152
g32
(lp1153
I203
aI1
aI41
aI15
asbaa(lp1154
(iBoxes
Box
p1155
(dp1156
g32
(lp1157
I199
aI3
aI37
aI12
asbaa(lp1158
(iBoxes
Box
p1159
(dp1160
g32
(lp1161
I191
aI5
aI36
aI11
asbaa(lp1162
(iBoxes
Box
p1163
(dp1164
g32
(lp1165
I184
aI6
aI36
aI10
asbaa(lp1166
a(lp1167
a(lp1168
a(lp1169
a(lp1170
a(lp1171
a(lp1172
a(lp1173
a(lp1174
(iBoxes
Box
p1175
(dp1176
g32
(lp1177
I111
aI22
aI49
aI14
asbaa(lp1178
(iBoxes
Box
p1179
(dp1180
g32
(lp1181
I97
aI19
aI53
aI24
asbaa(lp1182
(iBoxes
Box
p1183
(dp1184
g32
(lp1185
I93
aI26
aI45
aI16
asbaa(lp1186
(iBoxes
Box
p1187
(dp1188
g32
(lp1189
I81
aI32
aI49
aI15
asbaa(lp1190
(iBoxes
Box
p1191
(dp1192
g32
(lp1193
I79
aI37
aI39
aI17
asbaa(lp1194
(iBoxes
Box
p1195
(dp1196
g32
(lp1197
I69
aI40
aI39
aI16
asbaa(lp1198
(iBoxes
Box
p1199
(dp1200
g32
(lp1201
I65
aI40
aI46
aI16
asbaa(lp1202
(iBoxes
Box
p1203
(dp1204
g32
(lp1205
I54
aI46
aI48
aI14
asbaa(lp1206
(iBoxes
Box
p1207
(dp1208
g32
(lp1209
I48
aI48
aI52
aI27
asbaa(lp1210
(iBoxes
Box
p1211
(dp1212
g32
(lp1213
I34
aI61
aI50
aI11
asbaa(lp1214
(iBoxes
Box
p1215
(dp1216
g32
(lp1217
I22
aI53
aI62
aI31
asbaa(lp1218
(iBoxes
Box
p1219
(dp1220
g32
(lp1221
I19
aI71
aI60
aI19
asbaa(lp1222
(iBoxes
Box
p1223
(dp1224
g32
(lp1225
I16
aI72
aI59
aI18
asbaa(lp1226
(iBoxes
Box
p1227
(dp1228
g32
(lp1229
I2
aI79
aI62
aI21
asbaa(lp1230
(iBoxes
Box
p1231
(dp1232
g32
(lp1233
I2
aI93
aI55
aI17
asbaa(lp1234
(iBoxes
Box
p1235
(dp1236
g32
(lp1237
I0
aI104
aI52
aI17
asbaa(lp1238
(iBoxes
Box
p1239
(dp1240
g32
(lp1241
I0
aI118
aI45
aI16
asbaa(lp1242
(iBoxes
Box
p1243
(dp1244
g32
(lp1245
I0
aI132
aI39
aI17
asbaa(lp1246
(iBoxes
Box
p1247
(dp1248
g32
(lp1249
I0
aI135
aI38
aI14
asbaa(lp1250
a(lp1251
a(lp1252
a(lp1253
a(lp1254
a(lp1255
a(lp1256
(iBoxes
Box
p1257
(dp1258
g32
(lp1259
I122
aI0
aI33
aI13
asbaa(lp1260
(iBoxes
Box
p1261
(dp1262
g32
(lp1263
I125
aI1
aI51
aI25
asbaa(lp1264
(iBoxes
Box
p1265
(dp1266
g32
(lp1267
I125
aI1
aI51
aI25
asbaa(lp1268
(iBoxes
Box
p1269
(dp1270
g32
(lp1271
I134
aI9
aI46
aI14
asbaa(lp1272
(iBoxes
Box
p1273
(dp1274
g32
(lp1275
I149
aI1
aI46
aI25
asbaa(lp1276
(iBoxes
Box
p1277
(dp1278
g32
(lp1279
I148
aI3
aI43
aI25
asbaa(lp1280
(iBoxes
Box
p1281
(dp1282
g32
(lp1283
I154
aI16
aI43
aI19
asbaa(lp1284
(iBoxes
Box
p1285
(dp1286
g32
(lp1287
I165
aI24
aI41
aI11
asbaa(lp1288
(iBoxes
Box
p1289
(dp1290
g32
(lp1291
I174
aI24
aI51
aI28
asbaa(lp1292
(iBoxes
Box
p1293
(dp1294
g32
(lp1295
I180
aI27
aI52
aI26
asbaa(lp1296
(iBoxes
Box
p1297
(dp1298
g32
(lp1299
I196
aI33
aI49
aI25
asbaa(lp1300
(iBoxes
Box
p1301
(dp1302
g32
(lp1303
I198
aI29
aI49
aI30
asbaa(lp1304
(iBoxes
Box
p1305
(dp1306
g32
(lp1307
I208
aI37
aI51
aI28
asbaa(lp1308
(iBoxes
Box
p1309
(dp1310
g32
(lp1311
I223
aI44
aI51
aI29
asbaa(lp1312
(iBoxes
Box
p1313
(dp1314
g32
(lp1315
I231
aI50
aI61
aI33
asbaa(lp1316
(iBoxes
Box
p1317
(dp1318
g32
(lp1319
I249
aI65
aI56
aI27
asbaa(lp1320
(iBoxes
Box
p1321
(dp1322
g32
(lp1323
I267
aI77
aI56
aI28
asbaa(lp1324
(iBoxes
Box
p1325
(dp1326
g32
(lp1327
I263
aI75
aI61
aI28
asbaa(lp1328
(iBoxes
Box
p1329
(dp1330
g32
(lp1331
I275
aI90
aI62
aI27
asbaa(lp1332
(iBoxes
Box
p1333
(dp1334
g32
(lp1335
I294
aI105
aI61
aI26
asbaa(lp1336
(iBoxes
Box
p1337
(dp1338
g32
(lp1339
I305
aI124
aI70
aI26
asbaa(lp1340
(iBoxes
Box
p1341
(dp1342
g32
(lp1343
I326
aI141
aI68
aI38
asbaa(lp1344
(iBoxes
Box
p1345
(dp1346
g32
(lp1347
I334
aI162
aI86
aI37
asbaa(lp1348
(iBoxes
Box
p1349
(dp1350
g32
(lp1351
I341
aI165
aI76
aI34
asbaa(lp1352
a(lp1353
a(lp1354
a(lp1355
a(lp1356
a(lp1357
a(lp1358
a(lp1359
a(lp1360
a(lp1361
a(lp1362
a(lp1363
a(lp1364
a(lp1365
a(lp1366
a(lp1367
a(lp1368
a(lp1369
a(lp1370
a(lp1371
a(lp1372
a(lp1373
a(lp1374
a(lp1375
(iBoxes
Box
p1376
(dp1377
g32
(lp1378
I125
aI1
aI50
aI16
asbaa(lp1379
(iBoxes
Box
p1380
(dp1381
g32
(lp1382
I125
aI2
aI50
aI18
asbaa(lp1383
(iBoxes
Box
p1384
(dp1385
g32
(lp1386
I101
aI1
aI76
aI24
asbaa(lp1387
(iBoxes
Box
p1388
(dp1389
g32
(lp1390
I100
aI2
aI76
aI22
asbaa(lp1391
(iBoxes
Box
p1392
(dp1393
g32
(lp1394
I99
aI1
aI76
aI26
asbaa(lp1395
(iBoxes
Box
p1396
(dp1397
g32
(lp1398
I101
aI6
aI75
aI35
asbaa(lp1399
(iBoxes
Box
p1400
(dp1401
g32
(lp1402
I99
aI9
aI78
aI30
asbaa(lp1403
(iBoxes
Box
p1404
(dp1405
g32
(lp1406
I104
aI16
aI60
aI33
asbaa(lp1407
(iBoxes
Box
p1408
(dp1409
g32
(lp1410
I96
aI20
aI66
aI35
asbaa(lp1411
(iBoxes
Box
p1412
(dp1413
g32
(lp1414
I96
aI27
aI67
aI41
asbaa(lp1415
(iBoxes
Box
p1416
(dp1417
g32
(lp1418
I91
aI44
aI63
aI35
asba(iBoxes
Box
p1419
(dp1420
g32
(lp1421
I124
aI2
aI52
aI15
asbaa(lp1422
(iBoxes
Box
p1423
(dp1424
g32
(lp1425
I74
aI50
aI78
aI52
asba(iBoxes
Box
p1426
(dp1427
g32
(lp1428
I123
aI1
aI78
aI26
asbaa(lp1429
(iBoxes
Box
p1430
(dp1431
g32
(lp1432
I74
aI49
aI77
aI51
asba(iBoxes
Box
p1433
(dp1434
g32
(lp1435
I125
aI1
aI75
aI24
asbaa(lp1436
(iBoxes
Box
p1437
(dp1438
g32
(lp1439
I125
aI0
aI76
aI31
asba(iBoxes
Box
p1440
(dp1441
g32
(lp1442
I95
aI73
aI62
aI42
asbaa(lp1443
(iBoxes
Box
p1444
(dp1445
g32
(lp1446
I79
aI86
aI71
aI44
asba(iBoxes
Box
p1447
(dp1448
g32
(lp1449
I126
aI1
aI74
aI50
asbaa(lp1450
(iBoxes
Box
p1451
(dp1452
g32
(lp1453
I112
aI0
aI88
aI51
asba(iBoxes
Box
p1454
(dp1455
g32
(lp1456
I86
aI99
aI66
aI51
asbaa(lp1457
(iBoxes
Box
p1458
(dp1459
g32
(lp1460
I100
aI0
aI101
aI76
asba(iBoxes
Box
p1461
(dp1462
g32
(lp1463
I96
aI126
aI53
aI57
asbaa(lp1464
(iBoxes
Box
p1465
(dp1466
g32
(lp1467
I45
aI144
aI103
aI55
asba(iBoxes
Box
p1468
(dp1469
g32
(lp1470
I104
aI0
aI95
aI83
asbaa(lp1471
(iBoxes
Box
p1472
(dp1473
g32
(lp1474
I106
aI0
aI91
aI79
asbaa(lp1475
(iBoxes
Box
p1476
(dp1477
g32
(lp1478
I101
aI7
aI101
aI97
asbaa(lp1479
(iBoxes
Box
p1480
(dp1481
g32
(lp1482
I97
aI13
aI103
aI96
asbaa(lp1483
(iBoxes
Box
p1484
(dp1485
g32
(lp1486
I94
aI18
aI112
aI107
asbaa(lp1487
(iBoxes
Box
p1488
(dp1489
g32
(lp1490
I86
aI24
aI127
aI123
asbaa(lp1491
(iBoxes
Box
p1492
(dp1493
g32
(lp1494
I95
aI69
aI118
aI113
asba(iBoxes
Box
p1495
(dp1496
g32
(lp1497
I77
aI25
aI50
aI32
asba(iBoxes
Box
p1498
(dp1499
g32
(lp1500
I175
aI1
aI52
aI28
asbaa(lp1501
(iBoxes
Box
p1502
(dp1503
g32
(lp1504
I179
aI0
aI45
aI29
asba(iBoxes
Box
p1505
(dp1506
g32
(lp1507
I100
aI74
aI126
aI104
asba(iBoxes
Box
p1508
(dp1509
g32
(lp1510
I75
aI25
aI50
aI29
asbaa(lp1511
(iBoxes
Box
p1512
(dp1513
g32
(lp1514
I78
aI41
aI41
aI28
asba(iBoxes
Box
p1515
(dp1516
g32
(lp1517
I92
aI82
aI129
aI117
asba(iBoxes
Box
p1518
(dp1519
g32
(lp1520
I175
aI0
aI52
aI44
asbaa(lp1521
(iBoxes
Box
p1522
(dp1523
g32
(lp1524
I78
aI99
aI147
aI100
asba(iBoxes
Box
p1525
(dp1526
g32
(lp1527
I73
aI50
aI41
aI31
asba(iBoxes
Box
p1528
(dp1529
g32
(lp1530
I176
aI1
aI53
aI51
asbaa(lp1531
(iBoxes
Box
p1532
(dp1533
g32
(lp1534
I71
aI56
aI36
aI41
asba(iBoxes
Box
p1535
(dp1536
g32
(lp1537
I76
aI99
aI100
aI100
asba(iBoxes
Box
p1538
(dp1539
g32
(lp1540
I171
aI173
aI55
aI26
asba(iBoxes
Box
p1541
(dp1542
g32
(lp1543
I177
aI3
aI59
aI62
asbaa(lp1544
(iBoxes
Box
p1545
(dp1546
g32
(lp1547
I75
aI142
aI102
aI57
asba(iBoxes
Box
p1548
(dp1549
g32
(lp1550
I175
aI21
aI71
aI56
asba(iBoxes
Box
p1551
(dp1552
g32
(lp1553
I49
aI73
aI52
aI53
asbaa(lp1554
(iBoxes
Box
p1555
(dp1556
g32
(lp1557
I50
aI98
aI51
aI48
asba(iBoxes
Box
p1558
(dp1559
g32
(lp1560
I176
aI24
aI77
aI78
asbaa(lp1561
(iBoxes
Box
p1562
(dp1563
g32
(lp1564
I176
aI26
aI75
aI76
asba(iBoxes
Box
p1565
(dp1566
g32
(lp1567
I50
aI100
aI51
aI45
asbaa(lp1568
(iBoxes
Box
p1569
(dp1570
g32
(lp1571
I181
aI48
aI71
aI56
asba(iBoxes
Box
p1572
(dp1573
g32
(lp1574
I34
aI119
aI62
aI49
asbaa(lp1575
(iBoxes
Box
p1576
(dp1577
g32
(lp1578
I175
aI50
aI77
aI79
asba(iBoxes
Box
p1579
(dp1580
g32
(lp1581
I25
aI147
aI59
aI52
asbaa(lp1582
(iBoxes
Box
p1583
(dp1584
g32
(lp1585
I178
aI75
aI83
aI83
asba(iBoxes
Box
p1586
(dp1587
g32
(lp1588
I25
aI173
aI51
aI26
asbaa(lp1589
(iBoxes
Box
p1590
(dp1591
g32
(lp1592
I184
aI91
aI90
aI94
asbaa(lp1593
(iBoxes
Box
p1594
(dp1595
g32
(lp1596
I185
aI109
aI73
aI57
asbaa(lp1597
(iBoxes
Box
p1598
(dp1599
g32
(lp1600
I184
aI108
aI72
aI55
asbaa(lp1601
(iBoxes
Box
p1602
(dp1603
g32
(lp1604
I191
aI133
aI72
aI60
asbaa(lp1605
(iBoxes
Box
p1606
(dp1607
g32
(lp1608
I192
aI155
aI77
aI44
asbaa(lp1609
a(lp1610
a(lp1611
a(lp1612
a(lp1613
a(lp1614
a(lp1615
(iBoxes
Box
p1616
(dp1617
g32
(lp1618
I288
aI4
aI25
aI8
asbaa(lp1619
(iBoxes
Box
p1620
(dp1621
g32
(lp1622
I174
aI1
aI53
aI26
asbaa(lp1623
(iBoxes
Box
p1624
(dp1625
g32
(lp1626
I174
aI0
aI52
aI26
asbaa(lp1627
(iBoxes
Box
p1628
(dp1629
g32
(lp1630
I174
aI1
aI52
aI24
asbaa(lp1631
(iBoxes
Box
p1632
(dp1633
g32
(lp1634
I175
aI0
aI51
aI50
asbaa(lp1635
(iBoxes
Box
p1636
(dp1637
g32
(lp1638
I175
aI0
aI51
aI51
asbaa(lp1639
(iBoxes
Box
p1640
(dp1641
g32
(lp1642
I172
aI0
aI53
aI53
asbaa(lp1643
(iBoxes
Box
p1644
(dp1645
g32
(lp1646
I327
aI44
aI41
aI24
asba(iBoxes
Box
p1647
(dp1648
g32
(lp1649
I175
aI0
aI50
aI75
asbaa(lp1650
(iBoxes
Box
p1651
(dp1652
g32
(lp1653
I175
aI0
aI51
aI75
asba(iBoxes
Box
p1654
(dp1655
g32
(lp1656
I348
aI53
aI29
aI17
asbaa(lp1657
(iBoxes
Box
p1658
(dp1659
g32
(lp1660
I175
aI0
aI52
aI76
asba(iBoxes
Box
p1661
(dp1662
g32
(lp1663
I344
aI56
aI28
aI19
asba(iBoxes
Box
p1664
(dp1665
g32
(lp1666
I0
aI0
aI0
aI0
asbaa(lp1667
(iBoxes
Box
p1668
(dp1669
g32
(lp1670
I175
aI0
aI51
aI76
asba(iBoxes
Box
p1671
(dp1672
g32
(lp1673
I363
aI69
aI33
aI24
asbaa(lp1674
(iBoxes
Box
p1675
(dp1676
g32
(lp1677
I374
aI84
aI33
aI16
asba(iBoxes
Box
p1678
(dp1679
g32
(lp1680
I173
aI0
aI59
aI104
asbaa(lp1681
(iBoxes
Box
p1682
(dp1683
g32
(lp1684
I175
aI0
aI80
aI129
asbaa(lp1685
(iBoxes
Box
p1686
(dp1687
g32
(lp1688
I150
aI0
aI104
aI143
asbaa(lp1689
(iBoxes
Box
p1690
(dp1691
g32
(lp1692
I175
aI24
aI52
aI76
asba(iBoxes
Box
p1693
(dp1694
g32
(lp1695
I182
aI100
aI82
aI94
asbaa(lp1696
(iBoxes
Box
p1697
(dp1698
g32
(lp1699
I175
aI25
aI50
aI76
asba(iBoxes
Box
p1700
(dp1701
g32
(lp1702
I176
aI105
aI78
aI76
asbaa(lp1703
(iBoxes
Box
p1704
(dp1705
g32
(lp1706
I151
aI25
aI100
aI100
asba(iBoxes
Box
p1707
(dp1708
g32
(lp1709
I168
aI124
aI92
aI72
asbaa(lp1710
(iBoxes
Box
p1711
(dp1712
g32
(lp1713
I175
aI50
aI76
aI101
asba(iBoxes
Box
p1714
(dp1715
g32
(lp1716
I178
aI153
aI83
aI46
asbaa(lp1717
(iBoxes
Box
p1718
(dp1719
g32
(lp1720
I178
aI51
aI73
aI101
asba(iBoxes
Box
p1721
(dp1722
g32
(lp1723
I188
aI150
aI73
aI49
asbaa(lp1724
(iBoxes
Box
p1725
(dp1726
g32
(lp1727
I175
aI51
aI78
aI100
asba(iBoxes
Box
p1728
(dp1729
g32
(lp1730
I192
aI152
aI67
aI47
asbaa(lp1731
(iBoxes
Box
p1732
(dp1733
g32
(lp1734
I175
aI76
aI100
aI100
asbaa(lp1735
(iBoxes
Box
p1736
(dp1737
g32
(lp1738
I175
aI75
aI100
aI101
asbaa(lp1739
(iBoxes
Box
p1740
(dp1741
g32
(lp1742
I180
aI101
aI92
aI98
asbaa(lp1743
(iBoxes
Box
p1744
(dp1745
g32
(lp1746
I184
aI124
aI80
aI75
asbaa(lp1747
(iBoxes
Box
p1748
(dp1749
g32
(lp1750
I182
aI149
aI88
aI50
asbaa(lp1751
(iBoxes
Box
p1752
(dp1753
g32
(lp1754
I186
aI49
aI30
aI24
asba(iBoxes
Box
p1755
(dp1756
g32
(lp1757
I151
aI1
aI50
aI25
asbaa(lp1758
(iBoxes
Box
p1759
(dp1760
g32
(lp1761
I150
aI0
aI51
aI27
asba(iBoxes
Box
p1762
(dp1763
g32
(lp1764
I176
aI49
aI50
aI27
asbaa(lp1765
(iBoxes
Box
p1766
(dp1767
g32
(lp1768
I176
aI51
aI51
aI23
asba(iBoxes
Box
p1769
(dp1770
g32
(lp1771
I150
aI1
aI52
aI24
asbaa(lp1772
(iBoxes
Box
p1773
(dp1774
g32
(lp1775
I175
aI73
aI53
aI29
asba(iBoxes
Box
p1776
(dp1777
g32
(lp1778
I126
aI2
aI73
aI24
asbaa(lp1779
(iBoxes
Box
p1780
(dp1781
g32
(lp1782
I124
aI1
aI78
aI51
asba(iBoxes
Box
p1783
(dp1784
g32
(lp1785
I192
aI96
aI33
aI19
asbaa(lp1786
(iBoxes
Box
p1787
(dp1788
g32
(lp1789
I124
aI1
aI53
aI29
asbaa(lp1790
(iBoxes
Box
p1791
(dp1792
g32
(lp1793
I159
aI43
aI73
aI33
asba(iBoxes
Box
p1794
(dp1795
g32
(lp1796
I125
aI0
aI50
aI26
asba(iBoxes
Box
p1797
(dp1798
g32
(lp1799
I276
aI1
aI50
aI26
asbaa(lp1800
(iBoxes
Box
p1801
(dp1802
g32
(lp1803
I124
aI24
aI84
aI82
asba(iBoxes
Box
p1804
(dp1805
g32
(lp1806
I284
aI7
aI48
aI28
asbaa(lp1807
(iBoxes
Box
p1808
(dp1809
g32
(lp1810
I287
aI10
aI40
aI20
asba(iBoxes
Box
p1811
(dp1812
g32
(lp1813
I113
aI18
aI59
aI19
asbaa(lp1814
(iBoxes
Box
p1815
(dp1816
g32
(lp1817
I100
aI25
aI75
aI25
asba(iBoxes
Box
p1818
(dp1819
g32
(lp1820
I300
aI26
aI52
aI26
asbaa(lp1821
(iBoxes
Box
p1822
(dp1823
g32
(lp1824
I101
aI24
aI74
aI51
asba(iBoxes
Box
p1825
(dp1826
g32
(lp1827
I300
aI26
aI54
aI29
asbaa(lp1828
(iBoxes
Box
p1829
(dp1830
g32
(lp1831
I102
aI53
aI64
aI19
asba(iBoxes
Box
p1832
(dp1833
g32
(lp1834
I315
aI38
aI49
aI29
asbaa(lp1835
(iBoxes
Box
p1836
(dp1837
g32
(lp1838
I327
aI57
aI53
aI24
asba(iBoxes
Box
p1839
(dp1840
g32
(lp1841
I101
aI51
aI75
aI50
asbaa(lp1842
(iBoxes
Box
p1843
(dp1844
g32
(lp1845
I343
aI70
aI52
aI24
asba(iBoxes
Box
p1846
(dp1847
g32
(lp1848
I99
aI74
aI77
aI28
asbaa(lp1849
(iBoxes
Box
p1850
(dp1851
g32
(lp1852
I341
aI67
aI60
aI30
asba(iBoxes
Box
p1853
(dp1854
g32
(lp1855
I98
aI75
aI78
aI25
asbaa(lp1856
(iBoxes
Box
p1857
(dp1858
g32
(lp1859
I352
aI82
aI66
aI32
asba(iBoxes
Box
p1860
(dp1861
g32
(lp1862
I100
aI75
aI76
aI50
asba(iBoxes
Box
p1863
(dp1864
g32
(lp1865
I75
aI25
aI51
aI27
asba(iBoxes
Box
p1866
(dp1867
g32
(lp1868
I436
aI128
aI38
aI38
asbaa(lp1869
(iBoxes
Box
p1870
(dp1871
g32
(lp1872
I376
aI106
aI60
aI32
asba(iBoxes
Box
p1873
(dp1874
g32
(lp1875
I73
aI25
aI53
aI27
asba(iBoxes
Box
p1876
(dp1877
g32
(lp1878
I95
aI121
aI86
aI38
asbaa(lp1879
(iBoxes
Box
p1880
(dp1881
g32
(lp1882
I68
aI39
aI54
aI32
asba(iBoxes
Box
p1883
(dp1884
g32
(lp1885
I400
aI126
aI68
aI41
asba(iBoxes
Box
p1886
(dp1887
g32
(lp1888
I75
aI126
aI103
aI51
asbaa(lp1889
(iBoxes
Box
p1890
(dp1891
g32
(lp1892
I425
aI155
aI69
aI42
asba(iBoxes
Box
p1893
(dp1894
g32
(lp1895
I50
aI49
aI76
aI47
asbaa(lp1896
(iBoxes
Box
p1897
(dp1898
g32
(lp1899
I48
aI75
aI69
aI33
asbaa(lp1900
(iBoxes
Box
p1901
(dp1902
g32
(lp1903
I56
aI68
aI56
aI43
asbaa.